; ModuleID = '60/1934.c'
source_filename = "60/1934.c"
target datalayout = "e-m:e-p270:32:32-p271:32:32-p272:64:64-i64:64-f80:128-n8:16:32:64-S128"
target triple = "x86_64-pc-linux-gnu"

@.str = private unnamed_addr constant [3 x i8] c"%d\00", align 1
@.str.1 = private unnamed_addr constant [6 x i8] c"empty\00", align 1
@.str.2 = private unnamed_addr constant [7 x i8] c"%d %d\0A\00", align 1

; Function Attrs: noinline nounwind uwtable
define dso_local i32 @main() #0 {
  %1 = alloca i32, align 4
  %2 = alloca i32, align 4
  %3 = alloca i32, align 4
  %4 = alloca i32, align 4
  %5 = alloca i32, align 4
  %6 = alloca i32, align 4
  %7 = alloca [100000 x i32], align 16
  store i32 0, i32* %1, align 4
  %8 = call i32 (i8*, ...) @__isoc99_scanf(i8* getelementptr inbounds ([3 x i8], [3 x i8]* @.str, i64 0, i64 0), i32* %2)
  %9 = load i32, i32* %2, align 4
  %10 = icmp slt i32 %9, 5
  br i1 %10, label %11, label %13

11:                                               ; preds = %0
  %12 = call i32 (i8*, ...) @printf(i8* getelementptr inbounds ([6 x i8], [6 x i8]* @.str.1, i64 0, i64 0))
  br label %86

13:                                               ; preds = %0
  %14 = load i32, i32* %2, align 4
  %15 = icmp sge i32 %14, 5
  br i1 %15, label %16, label %85

16:                                               ; preds = %13
  store i32 0, i32* %6, align 4
  store i32 3, i32* %3, align 4
  br label %17

17:                                               ; preds = %49, %16
  %18 = load i32, i32* %3, align 4
  %19 = load i32, i32* %2, align 4
  %20 = add nsw i32 %19, 1
  %21 = icmp slt i32 %18, %20
  br i1 %21, label %22, label %52

22:                                               ; preds = %17
  store i32 0, i32* %5, align 4
  store i32 2, i32* %4, align 4
  br label %23

23:                                               ; preds = %35, %22
  %24 = load i32, i32* %4, align 4
  %25 = load i32, i32* %3, align 4
  %26 = sdiv i32 %25, 2
  %27 = icmp sle i32 %24, %26
  br i1 %27, label %28, label %38

28:                                               ; preds = %23
  %29 = load i32, i32* %3, align 4
  %30 = load i32, i32* %4, align 4
  %31 = srem i32 %29, %30
  %32 = icmp eq i32 %31, 0
  br i1 %32, label %33, label %34

33:                                               ; preds = %28
  store i32 1, i32* %5, align 4
  br label %38

34:                                               ; preds = %28
  br label %35

35:                                               ; preds = %34
  %36 = load i32, i32* %4, align 4
  %37 = add nsw i32 %36, 1
  store i32 %37, i32* %4, align 4
  br label %23

38:                                               ; preds = %33, %23
  %39 = load i32, i32* %5, align 4
  %40 = icmp eq i32 %39, 0
  br i1 %40, label %41, label %48

41:                                               ; preds = %38
  %42 = load i32, i32* %3, align 4
  %43 = load i32, i32* %6, align 4
  %44 = sext i32 %43 to i64
  %45 = getelementptr inbounds [100000 x i32], [100000 x i32]* %7, i64 0, i64 %44
  store i32 %42, i32* %45, align 4
  %46 = load i32, i32* %6, align 4
  %47 = add nsw i32 %46, 1
  store i32 %47, i32* %6, align 4
  br label %48

48:                                               ; preds = %41, %38
  br label %49

49:                                               ; preds = %48
  %50 = load i32, i32* %3, align 4
  %51 = add nsw i32 %50, 1
  store i32 %51, i32* %3, align 4
  br label %17

52:                                               ; preds = %17
  store i32 1, i32* %3, align 4
  br label %53

53:                                               ; preds = %81, %52
  %54 = load i32, i32* %3, align 4
  %55 = load i32, i32* %6, align 4
  %56 = icmp slt i32 %54, %55
  br i1 %56, label %57, label %84

57:                                               ; preds = %53
  %58 = load i32, i32* %3, align 4
  %59 = sext i32 %58 to i64
  %60 = getelementptr inbounds [100000 x i32], [100000 x i32]* %7, i64 0, i64 %59
  %61 = load i32, i32* %60, align 4
  %62 = load i32, i32* %3, align 4
  %63 = sub nsw i32 %62, 1
  %64 = sext i32 %63 to i64
  %65 = getelementptr inbounds [100000 x i32], [100000 x i32]* %7, i64 0, i64 %64
  %66 = load i32, i32* %65, align 4
  %67 = sub nsw i32 %61, %66
  %68 = icmp eq i32 %67, 2
  br i1 %68, label %69, label %80

69:                                               ; preds = %57
  %70 = load i32, i32* %3, align 4
  %71 = sub nsw i32 %70, 1
  %72 = sext i32 %71 to i64
  %73 = getelementptr inbounds [100000 x i32], [100000 x i32]* %7, i64 0, i64 %72
  %74 = load i32, i32* %73, align 4
  %75 = load i32, i32* %3, align 4
  %76 = sext i32 %75 to i64
  %77 = getelementptr inbounds [100000 x i32], [100000 x i32]* %7, i64 0, i64 %76
  %78 = load i32, i32* %77, align 4
  %79 = call i32 (i8*, ...) @printf(i8* getelementptr inbounds ([7 x i8], [7 x i8]* @.str.2, i64 0, i64 0), i32 %74, i32 %78)
  br label %80

80:                                               ; preds = %69, %57
  br label %81

81:                                               ; preds = %80
  %82 = load i32, i32* %3, align 4
  %83 = add nsw i32 %82, 1
  store i32 %83, i32* %3, align 4
  br label %53

84:                                               ; preds = %53
  br label %85

85:                                               ; preds = %84, %13
  br label %86

86:                                               ; preds = %85, %11
  %87 = load i32, i32* %1, align 4
  ret i32 %87
}

declare dso_local i32 @__isoc99_scanf(i8*, ...) #1

declare dso_local i32 @printf(i8*, ...) #1


!llvm.module.flags = !{!0}
!llvm.ident = !{!1}

!0 = !{i32 1, !"wchar_size", i32 4}
!1 = !{!"clang version 10.0.0-4ubuntu1 "}
