; ModuleID = 'source-C-CXX/59/1934.c'
source_filename = "source-C-CXX/59/1934.c"
target datalayout = "e-m:e-p270:32:32-p271:32:32-p272:64:64-i64:64-f80:128-n8:16:32:64-S128"
target triple = "x86_64-pc-linux-gnu"

@.str = private unnamed_addr constant [3 x i8] c"%d\00", align 1
@.str.1 = private unnamed_addr constant [6 x i8] c"empty\00", align 1
@.str.2 = private unnamed_addr constant [7 x i8] c"%d %d\0A\00", align 1

; Function Attrs: nofree nounwind sspstrong uwtable
define dso_local i32 @main() local_unnamed_addr #0 {
  %1 = alloca i32, align 4
  %2 = alloca [100000 x i32], align 16
  %3 = bitcast i32* %1 to i8*
  call void @llvm.lifetime.start.p0i8(i64 4, i8* nonnull %3) #4
  %4 = bitcast [100000 x i32]* %2 to i8*
  call void @llvm.lifetime.start.p0i8(i64 400000, i8* nonnull %4) #4
  %5 = call i32 (i8*, ...) @__isoc99_scanf(i8* getelementptr inbounds ([3 x i8], [3 x i8]* @.str, i64 0, i64 0), i32* nonnull %1)
  %6 = load i32, i32* %1, align 4, !tbaa !5
  %7 = icmp slt i32 %6, 5
  br i1 %7, label %8, label %10

8:                                                ; preds = %0
  %9 = call i32 (i8*, ...) @printf(i8* nonnull dereferenceable(1) getelementptr inbounds ([6 x i8], [6 x i8]* @.str.1, i64 0, i64 0))
  br label %49

10:                                               ; preds = %0, %33
  %11 = phi i32 [ %34, %33 ], [ 0, %0 ]
  %12 = phi i32 [ %35, %33 ], [ 3, %0 ]
  %13 = lshr i32 %12, 1
  %14 = call i32 @llvm.umax.i32(i32 %13, i32 2)
  %15 = icmp ult i32 %12, 4
  br i1 %15, label %29, label %25

16:                                               ; preds = %33
  %17 = icmp sgt i32 %34, 1
  br i1 %17, label %18, label %49

18:                                               ; preds = %16
  %19 = zext i32 %34 to i64
  %20 = getelementptr inbounds [100000 x i32], [100000 x i32]* %2, i64 0, i64 0
  %21 = load i32, i32* %20, align 16, !tbaa !5
  br label %37

22:                                               ; preds = %25
  %23 = add nuw nsw i32 %26, 1
  %24 = icmp eq i32 %26, %14
  br i1 %24, label %29, label %25, !llvm.loop !9

25:                                               ; preds = %10, %22
  %26 = phi i32 [ %23, %22 ], [ 2, %10 ]
  %27 = urem i32 %12, %26
  %28 = icmp eq i32 %27, 0
  br i1 %28, label %33, label %22

29:                                               ; preds = %22, %10
  %30 = sext i32 %11 to i64
  %31 = getelementptr inbounds [100000 x i32], [100000 x i32]* %2, i64 0, i64 %30
  store i32 %12, i32* %31, align 4, !tbaa !5
  %32 = add nsw i32 %11, 1
  br label %33

33:                                               ; preds = %25, %29
  %34 = phi i32 [ %32, %29 ], [ %11, %25 ]
  %35 = add nuw i32 %12, 1
  %36 = icmp eq i32 %12, %6
  br i1 %36, label %16, label %10, !llvm.loop !11

37:                                               ; preds = %18, %46
  %38 = phi i32 [ %21, %18 ], [ %41, %46 ]
  %39 = phi i64 [ 1, %18 ], [ %47, %46 ]
  %40 = getelementptr inbounds [100000 x i32], [100000 x i32]* %2, i64 0, i64 %39
  %41 = load i32, i32* %40, align 4, !tbaa !5
  %42 = sub nsw i32 %41, %38
  %43 = icmp eq i32 %42, 2
  br i1 %43, label %44, label %46

44:                                               ; preds = %37
  %45 = call i32 (i8*, ...) @printf(i8* nonnull dereferenceable(1) getelementptr inbounds ([7 x i8], [7 x i8]* @.str.2, i64 0, i64 0), i32 %38, i32 %41)
  br label %46

46:                                               ; preds = %37, %44
  %47 = add nuw nsw i64 %39, 1
  %48 = icmp eq i64 %47, %19
  br i1 %48, label %49, label %37, !llvm.loop !12

49:                                               ; preds = %46, %16, %8
  call void @llvm.lifetime.end.p0i8(i64 400000, i8* nonnull %4) #4
  call void @llvm.lifetime.end.p0i8(i64 4, i8* nonnull %3) #4
  ret i32 0
}

; Function Attrs: argmemonly mustprogress nofree nosync nounwind willreturn
declare void @llvm.lifetime.start.p0i8(i64 immarg, i8* nocapture) #1

; Function Attrs: nofree nounwind
declare noundef i32 @__isoc99_scanf(i8* nocapture noundef readonly, ...) local_unnamed_addr #2

; Function Attrs: nofree nounwind
declare noundef i32 @printf(i8* nocapture noundef readonly, ...) local_unnamed_addr #2

; Function Attrs: argmemonly mustprogress nofree nosync nounwind willreturn
declare void @llvm.lifetime.end.p0i8(i64 immarg, i8* nocapture) #1

; Function Attrs: nofree nosync nounwind readnone speculatable willreturn
declare i32 @llvm.umax.i32(i32, i32) #3


!llvm.module.flags = !{!0, !1, !2, !3}
!llvm.ident = !{!4}

!0 = !{i32 1, !"wchar_size", i32 4}
!1 = !{i32 7, !"PIC Level", i32 2}
!2 = !{i32 7, !"PIE Level", i32 2}
!3 = !{i32 7, !"uwtable", i32 1}
!4 = !{!"clang version 13.0.0"}
!5 = !{!6, !6, i64 0}
!6 = !{!"int", !7, i64 0}
!7 = !{!"omnipotent char", !8, i64 0}
!8 = !{!"Simple C/C++ TBAA"}
!9 = distinct !{!9, !10}
!10 = !{!"llvm.loop.mustprogress"}
!11 = distinct !{!11, !10}
!12 = distinct !{!12, !10}
